; Function Attrs: mustprogress nofree norecurse nosync nounwind willreturn memory(argmem: write) uwtable
define dso_local void @_ZN4Luau20TypeFunctionProperty9writeonlyEPKNS_16TypeFunctionTypeE(ptr dead_on_unwind noalias writable writeonly sret(%"struct.Luau::TypeFunctionProperty") align 8 captures(none) initializes((8, 9), (16, 25)) %0, ptr noundef %1) local_unnamed_addr #12 align 2 personality ptr @__gxx_personality_v0 {
  %3 = getelementptr inbounds nuw i8, ptr %0, i64 8
  store i8 0, ptr %3, align 8, !tbaa !110
  %4 = getelementptr inbounds nuw i8, ptr %0, i64 24
  %5 = getelementptr inbounds nuw i8, ptr %0, i64 16
  store ptr %1, ptr %5, align 8
  store i8 1, ptr %4, align 8
  ret void
}